target datalayout = "e-m:e-p270:32:32-p271:32:32-p272:64:64-i64:64-i128:128-f80:128-n8:16:32:64-S128"
target triple = "x86_64-pc-linux-gnu"

%class.dtPathCorridor = type { [3 x float], [3 x float], ptr, i32, i32 }

@.str.1 = private unnamed_addr constant [153 x i8] c"generated/home/dtcxzyw/WorkSpace/Projects/compilers/llvm-opt-benchmark/bench/recastnavigation/recastnavigation/DetourCrowd/Source/DetourPathCorridor.cpp\00", align 1
@.str.3 = private unnamed_addr constant [7 x i8] c"m_path\00", align 1

; Function Attrs: mustprogress nounwind uwtable
define linkonce_odr void @_Z7dtVcopyPfPKf(ptr noundef %0, ptr noundef %1) #1 comdat {
  %3 = alloca ptr, align 8
  %4 = alloca ptr, align 8
  store ptr %0, ptr %3, align 8
  store ptr %1, ptr %4, align 8
  %5 = load ptr, ptr %4, align 8
  %6 = getelementptr inbounds float, ptr %5, i64 0
  %7 = load float, ptr %6, align 4
  %8 = load ptr, ptr %3, align 8
  %9 = getelementptr inbounds float, ptr %8, i64 0
  store float %7, ptr %9, align 4
  %10 = load ptr, ptr %4, align 8
  %11 = getelementptr inbounds float, ptr %10, i64 1
  %12 = load float, ptr %11, align 4
  %13 = load ptr, ptr %3, align 8
  %14 = getelementptr inbounds float, ptr %13, i64 1
  store float %12, ptr %14, align 4
  %15 = load ptr, ptr %4, align 8
  %16 = getelementptr inbounds float, ptr %15, i64 2
  %17 = load float, ptr %16, align 4
  %18 = load ptr, ptr %3, align 8
  %19 = getelementptr inbounds float, ptr %18, i64 2
  store float %17, ptr %19, align 4
  ret void
}

; Function Attrs: mustprogress uwtable
define noundef zeroext i1 @_ZN14dtPathCorridor12fixPathStartEjPKf(ptr noundef nonnull align 8 dereferenceable(40) %0, i32 noundef %1, ptr noundef %2) #0 align 2 {
  %4 = alloca ptr, align 8
  %5 = alloca i32, align 4
  %6 = alloca ptr, align 8
  %7 = alloca ptr, align 8
  store ptr %0, ptr %4, align 8
  store i32 %1, ptr %5, align 4
  store ptr %2, ptr %6, align 8
  %8 = load ptr, ptr %4, align 8
  %9 = call noundef ptr @_Z21dtAssertFailGetCustomv()
  store ptr %9, ptr %7, align 8
  %10 = load ptr, ptr %7, align 8
  %11 = icmp eq ptr %10, null
  br i1 %11, label %12, label %13

12:                                               ; preds = %3
  br label %20

13:                                               ; preds = %3
  %14 = getelementptr inbounds %class.dtPathCorridor, ptr %8, i32 0, i32 2
  %15 = load ptr, ptr %14, align 8
  %16 = icmp ne ptr %15, null
  br i1 %16, label %19, label %17

17:                                               ; preds = %13
  %18 = load ptr, ptr %7, align 8
  call void %18(ptr noundef @.str.3, ptr noundef @.str.1, i32 noundef 524)
  br label %19

19:                                               ; preds = %17, %13
  br label %20

20:                                               ; preds = %19, %12
  %21 = getelementptr inbounds %class.dtPathCorridor, ptr %8, i32 0, i32 0
  %22 = getelementptr inbounds [3 x float], ptr %21, i64 0, i64 0
  %23 = load ptr, ptr %6, align 8
  call void @_Z7dtVcopyPfPKf(ptr noundef %22, ptr noundef %23)
  %24 = getelementptr inbounds %class.dtPathCorridor, ptr %8, i32 0, i32 3
  %25 = load i32, ptr %24, align 8
  %26 = icmp slt i32 %25, 3
  br i1 %26, label %27, label %51

27:                                               ; preds = %20
  %28 = getelementptr inbounds %class.dtPathCorridor, ptr %8, i32 0, i32 3
  %29 = load i32, ptr %28, align 8
  %30 = icmp sgt i32 %29, 0
  br i1 %30, label %31, label %51

31:                                               ; preds = %27
  %32 = getelementptr inbounds %class.dtPathCorridor, ptr %8, i32 0, i32 2
  %33 = load ptr, ptr %32, align 8
  %34 = getelementptr inbounds %class.dtPathCorridor, ptr %8, i32 0, i32 3
  %35 = load i32, ptr %34, align 8
  %36 = sub nsw i32 %35, 1
  %37 = sext i32 %36 to i64
  %38 = getelementptr inbounds i32, ptr %33, i64 %37
  %39 = load i32, ptr %38, align 4
  %40 = getelementptr inbounds %class.dtPathCorridor, ptr %8, i32 0, i32 2
  %41 = load ptr, ptr %40, align 8
  %42 = getelementptr inbounds i32, ptr %41, i64 2
  store i32 %39, ptr %42, align 4
  %43 = load i32, ptr %5, align 4
  %44 = getelementptr inbounds %class.dtPathCorridor, ptr %8, i32 0, i32 2
  %45 = load ptr, ptr %44, align 8
  %46 = getelementptr inbounds i32, ptr %45, i64 0
  store i32 %43, ptr %46, align 4
  %47 = getelementptr inbounds %class.dtPathCorridor, ptr %8, i32 0, i32 2
  %48 = load ptr, ptr %47, align 8
  %49 = getelementptr inbounds i32, ptr %48, i64 1
  store i32 0, ptr %49, align 4
  %50 = getelementptr inbounds %class.dtPathCorridor, ptr %8, i32 0, i32 3
  store i32 3, ptr %50, align 8
  br label %59

51:                                               ; preds = %27, %20
  %52 = load i32, ptr %5, align 4
  %53 = getelementptr inbounds %class.dtPathCorridor, ptr %8, i32 0, i32 2
  %54 = load ptr, ptr %53, align 8
  %55 = getelementptr inbounds i32, ptr %54, i64 0
  store i32 %52, ptr %55, align 4
  %56 = getelementptr inbounds %class.dtPathCorridor, ptr %8, i32 0, i32 2
  %57 = load ptr, ptr %56, align 8
  %58 = getelementptr inbounds i32, ptr %57, i64 1
  store i32 0, ptr %58, align 4
  br label %59

59:                                               ; preds = %51, %31
  ret i1 true
}