; Function Attrs: mustprogress uwtable
define noundef zeroext i1 @_ZN14dtPathCorridor12fixPathStartEjPKf(ptr noundef nonnull align 8 captures(none) dereferenceable(40) initializes((0, 12)) %0, i32 noundef %1, ptr noundef readonly captures(none) %2) local_unnamed_addr #2 align 2 {
  %4 = tail call noundef ptr @_Z21dtAssertFailGetCustomv()
  %5 = icmp ne ptr %4, null
  %6 = getelementptr inbounds nuw i8, ptr %0, i64 24
  %7 = load ptr, ptr %6, align 8
  %.not = icmp eq ptr %7, null
  %or.cond = select i1 %5, i1 %.not, i1 false
  br i1 %or.cond, label %8, label %9

8:                                                ; preds = %3
  tail call void %4(ptr noundef nonnull @.str.3, ptr noundef nonnull @.str.1, i32 noundef 524)
  br label %9

9:                                                ; preds = %8, %3
  %10 = load float, ptr %2, align 4
  store float %10, ptr %0, align 8
  %11 = getelementptr inbounds nuw i8, ptr %2, i64 4
  %12 = load float, ptr %11, align 4
  %13 = getelementptr inbounds nuw i8, ptr %0, i64 4
  store float %12, ptr %13, align 4
  %14 = getelementptr inbounds nuw i8, ptr %2, i64 8
  %15 = load float, ptr %14, align 4
  %16 = getelementptr inbounds nuw i8, ptr %0, i64 8
  store float %15, ptr %16, align 8
  %17 = getelementptr inbounds nuw i8, ptr %0, i64 32
  %18 = load i32, ptr %17, align 8
  %19 = add i32 %18, -1
  %or.cond7 = icmp ult i32 %19, 2
  %20 = load ptr, ptr %6, align 8
  br i1 %or.cond7, label %21, label %30

21:                                               ; preds = %9
  %22 = zext nneg i32 %18 to i64
  %23 = getelementptr i32, ptr %20, i64 %22
  %24 = getelementptr i8, ptr %23, i64 -4
  %25 = load i32, ptr %24, align 4
  %26 = getelementptr inbounds nuw i8, ptr %20, i64 8
  store i32 %25, ptr %26, align 4
  %27 = load ptr, ptr %6, align 8
  store i32 %1, ptr %27, align 4
  %28 = load ptr, ptr %6, align 8
  %29 = getelementptr inbounds nuw i8, ptr %28, i64 4
  store i32 0, ptr %29, align 4
  store i32 3, ptr %17, align 8
  br label %33

30:                                               ; preds = %9
  store i32 %1, ptr %20, align 4
  %31 = load ptr, ptr %6, align 8
  %32 = getelementptr inbounds nuw i8, ptr %31, i64 4
  store i32 0, ptr %32, align 4
  br label %33

33:                                               ; preds = %30, %21
  ret i1 true
}